Certificate:
    Data:
        Version: 3 (0x2)
        Serial Number: 1 (0x1)
        Signature Algorithm: md5WithRSAEncryption
        Issuer: C=CA, ST=Quebec, L=Quebec City, O=Novell Ximian, OU=Mono Project, CN=Test CA
        Validity
            Not Before: Apr 12 15:17:58 2005 GMT
            Not After : Apr 12 15:17:58 2006 GMT
        Subject: C=CA, ST=Quebec, L=Quebec City, O=Novell Ximian, OU=Mono Project, CN=SSL Test
        Subject Public Key Info:
            Public Key Algorithm: rsaEncryption
            RSA Public Key: (1024 bit)
                Modulus (1024 bit):
                    00:d7:56:5b:61:f3:7b:5a:db:5c:ec:a5:c0:f6:85:
                    7f:74:67:33:b7:fc:55:72:f5:94:05:52:8c:da:73:
                    70:0a:7f:6f:f6:7a:70:d5:85:d9:64:9b:1f:82:a2:
                    b7:57:d5:e5:77:6e:da:bf:a3:c5:5d:32:c5:05:1c:
                    2d:8b:98:08:a5:a5:e4:15:52:68:f5:01:b1:b8:d0:
                    bb:1b:d0:80:83:bc:17:32:06:fc:05:18:e7:1e:97:
                    ac:ab:de:2d:51:d5:14:78:f7:05:ac:e8:4e:25:f4:
                    ff:86:d8:58:d4:9d:e1:e4:02:a1:30:23:c0:b0:19:
                    9a:15:33:ae:ba:62:08:c5:29
                Exponent: 65537 (0x10001)
        X509v3 extensions:
            X509v3 Basic Constraints: 
                CA:FALSE
            Netscape Comment: 
                OpenSSL Generated Certificate
            X509v3 Subject Key Identifier: 
                65:BB:48:01:4B:DB:D8:9A:FE:AB:96:C1:73:26:FB:03:27:B3:06:5F
            X509v3 Authority Key Identifier: 
                keyid:90:32:BC:6C:64:D2:5E:46:98:5F:20:31:DA:2F:E9:15:5D:C9:90:31
                DirName:/C=CA/ST=Quebec/L=Quebec City/O=Novell Ximian/OU=Mono Project/CN=Test CA
                serial:00

    Signature Algorithm: md5WithRSAEncryption
        5a:e3:d5:c7:69:dd:f7:84:e2:19:ee:a0:0d:d6:bb:a9:28:52:
        15:bc:dc:c3:ad:57:65:07:4c:36:ff:be:7f:15:59:c7:f4:be:
        6c:f2:88:8a:7a:59:14:0b:fa:07:e0:35:2f:0c:89:33:2c:5f:
        bd:67:03:f5:e6:81:ad:db:f1:12:18:f5:39:63:f7:62:f4:2d:
        e2:9f:f6:e8:32:98:af:bc:ae:65:04:6f:d1:de:d8:3b:aa:b7:
        66:1e:fa:77:16:dd:b5:eb:7d:b6:ed:a0:8f:68:cd:a0:11:e6:
        dc:bb:a6:ba:31:40:88:b1:04:fe:e8:ca:1d:57:5c:1e:89:8a:
        07:bd
-----BEGIN CERTIFICATE-----
MIIDXzCCAsigAwIBAgIBATANBgkqhkiG9w0BAQQFADB1MQswCQYDVQQGEwJDQTEP
MA0GA1UECBMGUXVlYmVjMRQwEgYDVQQHEwtRdWViZWMgQ2l0eTEWMBQGA1UEChMN
Tm92ZWxsIFhpbWlhbjEVMBMGA1UECxMMTW9ubyBQcm9qZWN0MRAwDgYDVQQDEwdU
ZXN0IENBMB4XDTA1MDQxMjE1MTc1OFoXDTA2MDQxMjE1MTc1OFowdjELMAkGA1UE
BhMCQ0ExDzANBgNVBAgTBlF1ZWJlYzEUMBIGA1UEBxMLUXVlYmVjIENpdHkxFjAU
BgNVBAoTDU5vdmVsbCBYaW1pYW4xFTATBgNVBAsTDE1vbm8gUHJvamVjdDERMA8G
A1UEAxMIU1NMIFRlc3QwgZ8wDQYJKoZIhvcNAQEBBQADgY0AMIGJAoGBANdWW2Hz
e1rbXOylwPaFf3RnM7f8VXL1lAVSjNpzcAp/b/Z6cNWF2WSbH4Kit1fV5Xdu2r+j
xV0yxQUcLYuYCKWl5BVSaPUBsbjQuxvQgIO8FzIG/AUY5x6XrKveLVHVFHj3Bazo
TiX0/4bYWNSd4eQCoTAjwLAZmhUzrrpiCMUpAgMBAAGjgf0wgfowCQYDVR0TBAIw
ADAsBglghkgBhvhCAQ0EHxYdT3BlblNTTCBHZW5lcmF0ZWQgQ2VydGlmaWNhdGUw
HQYDVR0OBBYEFGW7SAFL29ia/quWwXMm+wMnswZfMIGfBgNVHSMEgZcwgZSAFJAy
vGxk0l5GmF8gMdov6RVdyZAxoXmkdzB1MQswCQYDVQQGEwJDQTEPMA0GA1UECBMG
UXVlYmVjMRQwEgYDVQQHEwtRdWViZWMgQ2l0eTEWMBQGA1UEChMNTm92ZWxsIFhp
bWlhbjEVMBMGA1UECxMMTW9ubyBQcm9qZWN0MRAwDgYDVQQDEwdUZXN0IENBggEA
MA0GCSqGSIb3DQEBBAUAA4GBAFrj1cdp3feE4hnuoA3Wu6koUhW83MOtV2UHTDb/
vn8VWcf0vmzyiIp6WRQL+gfgNS8MiTMsX71nA/Xmga3b8RIY9Tlj92L0LeKf9ugy
mK+8rmUEb9He2Duqt2Ye+ncW3bXrfbbtoI9ozaAR5ty7proxQIixBP7oyh1XXB6J
ige9
-----END CERTIFICATE-----
